; ModuleID = '37/1700.c'
source_filename = "37/1700.c"
target datalayout = "e-m:e-p270:32:32-p271:32:32-p272:64:64-i64:64-f80:128-n8:16:32:64-S128"
target triple = "x86_64-pc-linux-gnu"

@.str = private unnamed_addr constant [3 x i8] c"%d\00", align 1
@.str.1 = private unnamed_addr constant [3 x i8] c"%s\00", align 1
@.str.2 = private unnamed_addr constant [4 x i8] c"%c\0A\00", align 1
@.str.3 = private unnamed_addr constant [3 x i8] c"%c\00", align 1
@.str.4 = private unnamed_addr constant [4 x i8] c"no\0A\00", align 1
@.str.5 = private unnamed_addr constant [3 x i8] c"no\00", align 1

; Function Attrs: noinline nounwind uwtable
define dso_local i32 @main() #0 {
  %1 = alloca i32, align 4
  %2 = alloca i32, align 4
  %3 = alloca i32, align 4
  %4 = alloca i32, align 4
  %5 = alloca i32, align 4
  %6 = alloca i32, align 4
  %7 = alloca i32, align 4
  %8 = alloca [100001 x i8], align 16
  store i32 0, i32* %1, align 4
  store i32 0, i32* %7, align 4
  %9 = call i32 (i8*, ...) @__isoc99_scanf(i8* getelementptr inbounds ([3 x i8], [3 x i8]* @.str, i64 0, i64 0), i32* %2)
  store i32 1, i32* %3, align 4
  br label %10

10:                                               ; preds = %108, %0
  %11 = load i32, i32* %3, align 4
  %12 = load i32, i32* %2, align 4
  %13 = icmp sle i32 %11, %12
  br i1 %13, label %14, label %111

14:                                               ; preds = %10
  %15 = getelementptr inbounds [100001 x i8], [100001 x i8]* %8, i64 0, i64 0
  %16 = call i32 (i8*, ...) @__isoc99_scanf(i8* getelementptr inbounds ([3 x i8], [3 x i8]* @.str.1, i64 0, i64 0), i8* %15)
  %17 = getelementptr inbounds [100001 x i8], [100001 x i8]* %8, i64 0, i64 0
  %18 = call i64 @strlen(i8* %17) #3
  %19 = trunc i64 %18 to i32
  store i32 %19, i32* %4, align 4
  store i32 0, i32* %5, align 4
  br label %20

20:                                               ; preds = %84, %14
  %21 = load i32, i32* %5, align 4
  %22 = load i32, i32* %4, align 4
  %23 = sub nsw i32 %22, 1
  %24 = icmp sle i32 %21, %23
  br i1 %24, label %25, label %87

25:                                               ; preds = %20
  store i32 0, i32* %6, align 4
  br label %26

26:                                               ; preds = %47, %25
  %27 = load i32, i32* %6, align 4
  %28 = load i32, i32* %4, align 4
  %29 = sub nsw i32 %28, 1
  %30 = icmp sle i32 %27, %29
  br i1 %30, label %31, label %50

31:                                               ; preds = %26
  %32 = load i32, i32* %5, align 4
  %33 = sext i32 %32 to i64
  %34 = getelementptr inbounds [100001 x i8], [100001 x i8]* %8, i64 0, i64 %33
  %35 = load i8, i8* %34, align 1
  %36 = sext i8 %35 to i32
  %37 = load i32, i32* %6, align 4
  %38 = sext i32 %37 to i64
  %39 = getelementptr inbounds [100001 x i8], [100001 x i8]* %8, i64 0, i64 %38
  %40 = load i8, i8* %39, align 1
  %41 = sext i8 %40 to i32
  %42 = icmp ne i32 %36, %41
  br i1 %42, label %43, label %46

43:                                               ; preds = %31
  %44 = load i32, i32* %7, align 4
  %45 = add nsw i32 %44, 1
  store i32 %45, i32* %7, align 4
  br label %46

46:                                               ; preds = %43, %31
  br label %47

47:                                               ; preds = %46
  %48 = load i32, i32* %6, align 4
  %49 = add nsw i32 %48, 1
  store i32 %49, i32* %6, align 4
  br label %26

50:                                               ; preds = %26
  %51 = load i32, i32* %7, align 4
  %52 = load i32, i32* %4, align 4
  %53 = sub nsw i32 %52, 1
  %54 = icmp eq i32 %51, %53
  br i1 %54, label %55, label %66

55:                                               ; preds = %50
  %56 = load i32, i32* %3, align 4
  %57 = load i32, i32* %2, align 4
  %58 = icmp ne i32 %56, %57
  br i1 %58, label %59, label %66

59:                                               ; preds = %55
  %60 = load i32, i32* %5, align 4
  %61 = sext i32 %60 to i64
  %62 = getelementptr inbounds [100001 x i8], [100001 x i8]* %8, i64 0, i64 %61
  %63 = load i8, i8* %62, align 1
  %64 = sext i8 %63 to i32
  %65 = call i32 (i8*, ...) @printf(i8* getelementptr inbounds ([4 x i8], [4 x i8]* @.str.2, i64 0, i64 0), i32 %64)
  br label %87

66:                                               ; preds = %55, %50
  %67 = load i32, i32* %7, align 4
  %68 = load i32, i32* %4, align 4
  %69 = sub nsw i32 %68, 1
  %70 = icmp eq i32 %67, %69
  br i1 %70, label %71, label %82

71:                                               ; preds = %66
  %72 = load i32, i32* %3, align 4
  %73 = load i32, i32* %2, align 4
  %74 = icmp eq i32 %72, %73
  br i1 %74, label %75, label %82

75:                                               ; preds = %71
  %76 = load i32, i32* %5, align 4
  %77 = sext i32 %76 to i64
  %78 = getelementptr inbounds [100001 x i8], [100001 x i8]* %8, i64 0, i64 %77
  %79 = load i8, i8* %78, align 1
  %80 = sext i8 %79 to i32
  %81 = call i32 (i8*, ...) @printf(i8* getelementptr inbounds ([3 x i8], [3 x i8]* @.str.3, i64 0, i64 0), i32 %80)
  br label %87

82:                                               ; preds = %71, %66
  br label %83

83:                                               ; preds = %82
  store i32 0, i32* %7, align 4
  br label %84

84:                                               ; preds = %83
  %85 = load i32, i32* %5, align 4
  %86 = add nsw i32 %85, 1
  store i32 %86, i32* %5, align 4
  br label %20

87:                                               ; preds = %75, %59, %20
  %88 = load i32, i32* %5, align 4
  %89 = load i32, i32* %4, align 4
  %90 = icmp eq i32 %88, %89
  br i1 %90, label %91, label %97

91:                                               ; preds = %87
  %92 = load i32, i32* %3, align 4
  %93 = load i32, i32* %2, align 4
  %94 = icmp ne i32 %92, %93
  br i1 %94, label %95, label %97

95:                                               ; preds = %91
  %96 = call i32 (i8*, ...) @printf(i8* getelementptr inbounds ([4 x i8], [4 x i8]* @.str.4, i64 0, i64 0))
  br label %97

97:                                               ; preds = %95, %91, %87
  %98 = load i32, i32* %5, align 4
  %99 = load i32, i32* %4, align 4
  %100 = icmp eq i32 %98, %99
  br i1 %100, label %101, label %107

101:                                              ; preds = %97
  %102 = load i32, i32* %3, align 4
  %103 = load i32, i32* %2, align 4
  %104 = icmp eq i32 %102, %103
  br i1 %104, label %105, label %107

105:                                              ; preds = %101
  %106 = call i32 (i8*, ...) @printf(i8* getelementptr inbounds ([3 x i8], [3 x i8]* @.str.5, i64 0, i64 0))
  br label %107

107:                                              ; preds = %105, %101, %97
  store i32 0, i32* %7, align 4
  br label %108

108:                                              ; preds = %107
  %109 = load i32, i32* %3, align 4
  %110 = add nsw i32 %109, 1
  store i32 %110, i32* %3, align 4
  br label %10

111:                                              ; preds = %10
  %112 = load i32, i32* %1, align 4
  ret i32 %112
}

declare dso_local i32 @__isoc99_scanf(i8*, ...) #1

; Function Attrs: nounwind readonly
declare dso_local i64 @strlen(i8*) #2

declare dso_local i32 @printf(i8*, ...) #1


!llvm.module.flags = !{!0}
!llvm.ident = !{!1}

!0 = !{i32 1, !"wchar_size", i32 4}
!1 = !{!"clang version 10.0.0-4ubuntu1 "}
